; Function Attrs: nounwind uwtable
define dso_local ptr @lookup_commit_reference(ptr noundef %0, ptr noundef %1) local_unnamed_addr #0 {
  %3 = tail call ptr @parse_object(ptr noundef %0, ptr noundef %1) #24
  %4 = tail call ptr @deref_tag(ptr noundef %0, ptr noundef %3, ptr noundef null, i32 noundef 0) #24
  %.not.i = icmp eq ptr %4, null
  br i1 %.not.i, label %lookup_commit_reference_gently.exit, label %5

5:                                                ; preds = %2
  %6 = tail call ptr @object_as_type(ptr noundef nonnull %4, i32 noundef 1, i32 noundef 0) #24
  br label %lookup_commit_reference_gently.exit

lookup_commit_reference_gently.exit:              ; preds = %2, %5
  %.0.i = phi ptr [ %6, %5 ], [ null, %2 ]
  ret ptr %.0.i
}